target datalayout = "e-m:e-p270:32:32-p271:32:32-p272:64:64-i64:64-i128:128-f80:128-n8:16:32:64-S128"
target triple = "x86_64-pc-linux-gnu"

%struct.draw_methods = type { ptr, ptr, ptr, ptr, ptr, ptr }
%struct.lstopo_output = type { ptr, i32, i32, i32, ptr, i32, i32, i32, i32, i32, i32, i32, i32, ptr, ptr, i32, i32, i64, i64, i64, i32, [3 x [128 x i8]], i32, i32, ptr, i32, i32, i32, i32, i32, i32, %struct.hwloc_calc_level, i32, i32, i32, i64, [256 x i8], i32, i32, i32, i32, i32, float, [20 x i32], i32, i32, i32, [20 x i32], i32, [20 x i32], i32, [20 x i32], i32, i32, i32, i32, ptr, ptr, i32, [20 x i32], [20 x i32], [20 x i32], ptr, ptr, i64, ptr, i32, i32, i32 }
%struct.hwloc_calc_level = type { i32, i32, %union.hwloc_obj_attr_u, [32 x i8], i32, i32, i32, i32 }
%union.hwloc_obj_attr_u = type { %struct.hwloc_numanode_attr_s, [24 x i8] }
%struct.hwloc_numanode_attr_s = type { i64, i32, ptr }

@stderr = external global ptr, align 8
@.str = private unnamed_addr constant [36 x i8] c"Failed to open %s for writing (%s)\0A\00", align 1
@.str.1 = private unnamed_addr constant [73 x i8] c"Invalid value for %s. The only accepted values are \22rm\22, \22sf\22 and \22tt\22.\0A\00", align 1
@.str.2 = private unnamed_addr constant [23 x i8] c"LSTOPO_TIKZ_FONTFAMILY\00", align 1
@stdout = external global ptr, align 8
@tikz_draw_methods = internal global %struct.draw_methods { ptr @tikz_declare_color, ptr null, ptr @tikz_box, ptr @tikz_line, ptr @tikz_text, ptr @tikz_textsize }, align 8
@.str.3 = private unnamed_addr constant [28 x i8] c"\\documentclass{standalone}\0A\00", align 1
@.str.4 = private unnamed_addr constant [124 x i8] c"\0A%%%%%%%%%% If inserting in another document, the following lines below must be copied before \\begin{document} %%%%%%%%%%\0A\0A\00", align 1
@.str.5 = private unnamed_addr constant [39 x i8] c"\\usepackage{tikz}\0A\\usepackage{xcolor}\0A\00", align 1
@.str.6 = private unnamed_addr constant [70 x i8] c"\0A%%%%%%%%%% End of lines needed before \\begin{document}  %%%%%%%%%%\0A\0A\00", align 1
@.str.7 = private unnamed_addr constant [18 x i8] c"\\begin{document}\0A\00", align 1
@.str.8 = private unnamed_addr constant [105 x i8] c"\0A%%%%%%%%%% If inserting in another document, this is the actual source code of the picture %%%%%%%%%%\0A\0A\00", align 1
@.str.10 = private unnamed_addr constant [33 x i8] c"\09\\clip (0,0) rectangle (%u,%u);\0A\00", align 1
@.str.11 = private unnamed_addr constant [19 x i8] c"\\end{tikzpicture}\0A\00", align 1
@.str.12 = private unnamed_addr constant [96 x i8] c"\0A%%%%%%%%%% End of actual source code of the picture to insert in another document %%%%%%%%%%\0A\0A\00", align 1
@.str.13 = private unnamed_addr constant [16 x i8] c"\\end{document}\0A\00", align 1
@.str.14 = private unnamed_addr constant [1 x i8] zeroinitializer, align 1
@.str.15 = private unnamed_addr constant [3 x i8] c"sf\00", align 1
@.str.16 = private unnamed_addr constant [10 x i8] c"\\sffamily\00", align 1
@.str.17 = private unnamed_addr constant [3 x i8] c"rm\00", align 1
@.str.18 = private unnamed_addr constant [10 x i8] c"\\rmfamily\00", align 1
@.str.19 = private unnamed_addr constant [3 x i8] c"tt\00", align 1
@.str.20 = private unnamed_addr constant [10 x i8] c"\\ttfamily\00", align 1

; Function Attrs: nounwind uwtable
define internal ptr @tikz_get_font_family() #0 {
  %1 = alloca ptr, align 8
  %2 = alloca ptr, align 8
  %3 = alloca i32, align 4
  call void @llvm.lifetime.start.p0(i64 8, ptr %2) #8
  %4 = call ptr @getenv(ptr noundef @.str.2) #8
  store ptr %4, ptr %2, align 8, !tbaa !9
  %5 = load ptr, ptr %2, align 8, !tbaa !9
  %6 = icmp ne ptr %5, null
  br i1 %6, label %7, label %11

7:                                                ; preds = %0
  %8 = load ptr, ptr %2, align 8, !tbaa !9
  %9 = load i8, ptr %8, align 1, !tbaa !34
  %10 = icmp ne i8 %9, 0
  br i1 %10, label %12, label %11

11:                                               ; preds = %7, %0
  store ptr @.str.14, ptr %1, align 8
  store i32 1, ptr %3, align 4
  br label %28

12:                                               ; preds = %7
  %13 = load ptr, ptr %2, align 8, !tbaa !9
  %14 = call i32 @strcasecmp(ptr noundef %13, ptr noundef @.str.15) #10
  %15 = icmp ne i32 %14, 0
  br i1 %15, label %17, label %16

16:                                               ; preds = %12
  store ptr @.str.16, ptr %1, align 8
  store i32 1, ptr %3, align 4
  br label %28

17:                                               ; preds = %12
  %18 = load ptr, ptr %2, align 8, !tbaa !9
  %19 = call i32 @strcasecmp(ptr noundef %18, ptr noundef @.str.17) #10
  %20 = icmp ne i32 %19, 0
  br i1 %20, label %22, label %21

21:                                               ; preds = %17
  store ptr @.str.18, ptr %1, align 8
  store i32 1, ptr %3, align 4
  br label %28

22:                                               ; preds = %17
  %23 = load ptr, ptr %2, align 8, !tbaa !9
  %24 = call i32 @strcasecmp(ptr noundef %23, ptr noundef @.str.19) #10
  %25 = icmp ne i32 %24, 0
  br i1 %25, label %27, label %26

26:                                               ; preds = %22
  store ptr @.str.20, ptr %1, align 8
  store i32 1, ptr %3, align 4
  br label %28

27:                                               ; preds = %22
  store ptr null, ptr %1, align 8
  store i32 1, ptr %3, align 4
  br label %28

28:                                               ; preds = %27, %26, %21, %16, %11
  call void @llvm.lifetime.end.p0(i64 8, ptr %2) #8
  %29 = load ptr, ptr %1, align 8
  ret ptr %29
}

; Function Attrs: nounwind uwtable
define hidden i32 @output_tikz(ptr noundef %0, ptr noundef %1) #0 {
  %3 = alloca i32, align 4
  %4 = alloca ptr, align 8
  %5 = alloca ptr, align 8
  %6 = alloca ptr, align 8
  %7 = alloca ptr, align 8
  %8 = alloca i32, align 4
  store ptr %0, ptr %4, align 8, !tbaa !4
  store ptr %1, ptr %5, align 8, !tbaa !9
  call void @llvm.lifetime.start.p0(i64 8, ptr %6) #8
  call void @llvm.lifetime.start.p0(i64 8, ptr %7) #8
  %9 = load ptr, ptr %5, align 8, !tbaa !9
  %10 = load ptr, ptr %4, align 8, !tbaa !4
  %11 = getelementptr inbounds nuw %struct.lstopo_output, ptr %10, i32 0, i32 5
  %12 = load i32, ptr %11, align 8, !tbaa !11
  %13 = call noalias ptr @open_output(ptr noundef %9, i32 noundef %12)
  store ptr %13, ptr %7, align 8, !tbaa !23
  %14 = load ptr, ptr %7, align 8, !tbaa !23
  %15 = icmp ne ptr %14, null
  br i1 %15, label %23, label %16

16:                                               ; preds = %2
  %17 = load ptr, ptr @stderr, align 8, !tbaa !23
  %18 = load ptr, ptr %5, align 8, !tbaa !9
  %19 = call ptr @__errno_location() #9
  %20 = load i32, ptr %19, align 4, !tbaa !24
  %21 = call ptr @strerror(i32 noundef %20) #8
  %22 = call i32 (ptr, ptr, ...) @fprintf(ptr noundef %17, ptr noundef @.str, ptr noundef %18, ptr noundef %21) #8
  store i32 -1, ptr %3, align 4
  store i32 1, ptr %8, align 4
  br label %116

23:                                               ; preds = %2
  %24 = call ptr @tikz_get_font_family()
  store ptr %24, ptr %6, align 8, !tbaa !9
  %25 = load ptr, ptr %6, align 8, !tbaa !9
  %26 = icmp ne ptr %25, null
  br i1 %26, label %37, label %27

27:                                               ; preds = %23
  %28 = load ptr, ptr @stderr, align 8, !tbaa !23
  %29 = call i32 (ptr, ptr, ...) @fprintf(ptr noundef %28, ptr noundef @.str.1, ptr noundef @.str.2) #8
  %30 = load ptr, ptr %7, align 8, !tbaa !23
  %31 = load ptr, ptr @stdout, align 8, !tbaa !23
  %32 = icmp ne ptr %30, %31
  br i1 %32, label %33, label %36

33:                                               ; preds = %27
  %34 = load ptr, ptr %7, align 8, !tbaa !23
  %35 = call i32 @fclose(ptr noundef %34)
  br label %36

36:                                               ; preds = %33, %27
  store i32 -1, ptr %3, align 4
  store i32 1, ptr %8, align 4
  br label %116

37:                                               ; preds = %23
  %38 = load ptr, ptr %7, align 8, !tbaa !23
  %39 = load ptr, ptr %4, align 8, !tbaa !4
  %40 = getelementptr inbounds nuw %struct.lstopo_output, ptr %39, i32 0, i32 4
  store ptr %38, ptr %40, align 8, !tbaa !25
  %41 = load ptr, ptr %4, align 8, !tbaa !4
  %42 = getelementptr inbounds nuw %struct.lstopo_output, ptr %41, i32 0, i32 65
  store ptr @tikz_draw_methods, ptr %42, align 8, !tbaa !26
  %43 = load ptr, ptr %7, align 8, !tbaa !23
  %44 = load ptr, ptr %4, align 8, !tbaa !4
  %45 = getelementptr inbounds nuw %struct.lstopo_output, ptr %44, i32 0, i32 63
  store ptr %43, ptr %45, align 8, !tbaa !27
  %46 = load ptr, ptr %4, align 8, !tbaa !4
  %47 = getelementptr inbounds nuw %struct.lstopo_output, ptr %46, i32 0, i32 64
  %48 = load i64, ptr %47, align 8, !tbaa !28
  %49 = or i64 %48, 2
  store i64 %49, ptr %47, align 8, !tbaa !28
  %50 = load ptr, ptr %4, align 8, !tbaa !4
  %51 = getelementptr inbounds nuw %struct.lstopo_output, ptr %50, i32 0, i32 66
  store i32 0, ptr %51, align 8, !tbaa !29
  %52 = load ptr, ptr %4, align 8, !tbaa !4
  call void @output_draw(ptr noundef %52)
  %53 = load ptr, ptr %4, align 8, !tbaa !4
  %54 = getelementptr inbounds nuw %struct.lstopo_output, ptr %53, i32 0, i32 66
  store i32 1, ptr %54, align 8, !tbaa !29
  %55 = load ptr, ptr %7, align 8, !tbaa !23
  %56 = call i32 (ptr, ptr, ...) @fprintf(ptr noundef %55, ptr noundef @.str.3) #8
  %57 = load ptr, ptr %7, align 8, !tbaa !23
  %58 = call i32 (ptr, ptr, ...) @fprintf(ptr noundef %57, ptr noundef @.str.4) #8
  %59 = load ptr, ptr %7, align 8, !tbaa !23
  %60 = call i32 (ptr, ptr, ...) @fprintf(ptr noundef %59, ptr noundef @.str.5) #8
  %61 = load ptr, ptr %4, align 8, !tbaa !4
  call void @declare_colors(ptr noundef %61)
  %62 = load ptr, ptr %4, align 8, !tbaa !4
  call void @lstopo_prepare_custom_styles(ptr noundef %62)
  %63 = load ptr, ptr %7, align 8, !tbaa !23
  %64 = call i32 (ptr, ptr, ...) @fprintf(ptr noundef %63, ptr noundef @.str.6) #8
  %65 = load ptr, ptr %7, align 8, !tbaa !23
  %66 = call i32 (ptr, ptr, ...) @fprintf(ptr noundef %65, ptr noundef @.str.7) #8
  %67 = load ptr, ptr %7, align 8, !tbaa !23
  %68 = call i32 (ptr, ptr, ...) @fprintf(ptr noundef %67, ptr noundef @.str.8) #8
  %69 = load ptr, ptr %7, align 8, !tbaa !23
  %70 = load ptr, ptr %4, align 8, !tbaa !4
  %71 = getelementptr inbounds nuw %struct.lstopo_output, ptr %70, i32 0, i32 39
  %72 = load i32, ptr %71, align 8, !tbaa !30
  %73 = load ptr, ptr %4, align 8, !tbaa !4
  %74 = getelementptr inbounds nuw %struct.lstopo_output, ptr %73, i32 0, i32 39
  %75 = load i32, ptr %74, align 8, !tbaa !30
  %76 = load ptr, ptr %4, align 8, !tbaa !4
  %77 = getelementptr inbounds nuw %struct.lstopo_output, ptr %76, i32 0, i32 40
  %78 = load i32, ptr %77, align 4, !tbaa !31
  %79 = add i32 %75, %78
  %80 = load ptr, ptr %6, align 8, !tbaa !9
  %81 = load ptr, ptr %4, align 8, !tbaa !4
  %82 = getelementptr inbounds nuw %struct.lstopo_output, ptr %81, i32 0, i32 39
  %83 = load i32, ptr %82, align 8, !tbaa !30
  %84 = load ptr, ptr %4, align 8, !tbaa !4
  %85 = getelementptr inbounds nuw %struct.lstopo_output, ptr %84, i32 0, i32 39
  %86 = load i32, ptr %85, align 8, !tbaa !30
  %87 = load ptr, ptr %4, align 8, !tbaa !4
  %88 = getelementptr inbounds nuw %struct.lstopo_output, ptr %87, i32 0, i32 40
  %89 = load i32, ptr %88, align 4, !tbaa !31
  %90 = add i32 %86, %89
  %91 = load ptr, ptr %6, align 8, !tbaa !9
  %92 = call i32 (ptr, ptr, ...) @fprintf(ptr noundef %69, ptr noundef @.str.9, i32 noundef %72, i32 noundef %79, ptr noundef %80, i32 noundef %83, i32 noundef %90, ptr noundef %91) #8
  %93 = load ptr, ptr %7, align 8, !tbaa !23
  %94 = load ptr, ptr %4, align 8, !tbaa !4
  %95 = getelementptr inbounds nuw %struct.lstopo_output, ptr %94, i32 0, i32 67
  %96 = load i32, ptr %95, align 4, !tbaa !32
  %97 = load ptr, ptr %4, align 8, !tbaa !4
  %98 = getelementptr inbounds nuw %struct.lstopo_output, ptr %97, i32 0, i32 68
  %99 = load i32, ptr %98, align 8, !tbaa !33
  %100 = call i32 (ptr, ptr, ...) @fprintf(ptr noundef %93, ptr noundef @.str.10, i32 noundef %96, i32 noundef %99) #8
  %101 = load ptr, ptr %4, align 8, !tbaa !4
  call void @output_draw(ptr noundef %101)
  %102 = load ptr, ptr %7, align 8, !tbaa !23
  %103 = call i32 (ptr, ptr, ...) @fprintf(ptr noundef %102, ptr noundef @.str.11) #8
  %104 = load ptr, ptr %7, align 8, !tbaa !23
  %105 = call i32 (ptr, ptr, ...) @fprintf(ptr noundef %104, ptr noundef @.str.12) #8
  %106 = load ptr, ptr %7, align 8, !tbaa !23
  %107 = call i32 (ptr, ptr, ...) @fprintf(ptr noundef %106, ptr noundef @.str.13) #8
  %108 = load ptr, ptr %7, align 8, !tbaa !23
  %109 = load ptr, ptr @stdout, align 8, !tbaa !23
  %110 = icmp ne ptr %108, %109
  br i1 %110, label %111, label %114

111:                                              ; preds = %37
  %112 = load ptr, ptr %7, align 8, !tbaa !23
  %113 = call i32 @fclose(ptr noundef %112)
  br label %114

114:                                              ; preds = %111, %37
  %115 = load ptr, ptr %4, align 8, !tbaa !4
  call void @destroy_colors(ptr noundef %115)
  store i32 0, ptr %3, align 4
  store i32 1, ptr %8, align 4
  br label %116

116:                                              ; preds = %114, %36, %16
  call void @llvm.lifetime.end.p0(i64 8, ptr %7) #8
  call void @llvm.lifetime.end.p0(i64 8, ptr %6) #8
  %117 = load i32, ptr %3, align 4
  ret i32 %117
}