; Function Attrs: nounwind uwtable
define hidden range(i32 -1, 1) i32 @output_tikz(ptr noundef %0, ptr noundef %1) local_unnamed_addr #0 {
  %3 = getelementptr inbounds nuw i8, ptr %0, i64 32
  %4 = load i32, ptr %3, align 8, !tbaa !4
  %5 = tail call noalias ptr @open_output(ptr noundef %1, i32 noundef %4) #13
  %.not = icmp eq ptr %5, null
  br i1 %.not, label %6, label %12

6:                                                ; preds = %2
  %7 = load ptr, ptr @stderr, align 8, !tbaa !20
  %8 = tail call ptr @__errno_location() #14
  %9 = load i32, ptr %8, align 4, !tbaa !21
  %10 = tail call ptr @strerror(i32 noundef %9) #13
  %11 = tail call i32 (ptr, ptr, ...) @fprintf(ptr noundef %7, ptr noundef nonnull @.str, ptr noundef %1, ptr noundef %10) #15
  br label %58

12:                                               ; preds = %2
  %13 = tail call ptr @getenv(ptr noundef nonnull @.str.2) #13
  %.not.i = icmp eq ptr %13, null
  br i1 %.not.i, label %select.unfold, label %14

14:                                               ; preds = %12
  %15 = load i8, ptr %13, align 1, !tbaa !22
  %.not7.i = icmp eq i8 %15, 0
  br i1 %.not7.i, label %select.unfold, label %16

16:                                               ; preds = %14
  %17 = tail call i32 @strcasecmp(ptr noundef nonnull %13, ptr noundef nonnull @.str.15) #16
  %.not8.i = icmp eq i32 %17, 0
  br i1 %.not8.i, label %select.unfold, label %18

18:                                               ; preds = %16
  %19 = tail call i32 @strcasecmp(ptr noundef nonnull %13, ptr noundef nonnull @.str.17) #16
  %.not9.i = icmp eq i32 %19, 0
  br i1 %.not9.i, label %select.unfold, label %20

20:                                               ; preds = %18
  %21 = tail call i32 @strcasecmp(ptr noundef nonnull %13, ptr noundef nonnull @.str.19) #16
  %.not10.i = icmp eq i32 %21, 0
  br i1 %.not10.i, label %select.unfold, label %tikz_get_font_family.exit

tikz_get_font_family.exit:                        ; preds = %20
  %22 = load ptr, ptr @stderr, align 8, !tbaa !20
  %23 = tail call i32 (ptr, ptr, ...) @fprintf(ptr noundef %22, ptr noundef nonnull @.str.1, ptr noundef nonnull @.str.2) #15
  %24 = load ptr, ptr @stdout, align 8, !tbaa !20
  %.not46 = icmp eq ptr %5, %24
  br i1 %.not46, label %58, label %25

25:                                               ; preds = %tikz_get_font_family.exit
  %26 = tail call i32 @fclose(ptr noundef nonnull %5)
  br label %58

select.unfold:                                    ; preds = %20, %14, %12, %16, %18
  %.0.i.ph = phi ptr [ @.str.18, %18 ], [ @.str.16, %16 ], [ @.str.14, %12 ], [ @.str.14, %14 ], [ @.str.20, %20 ]
  %27 = getelementptr inbounds nuw i8, ptr %0, i64 24
  store ptr %5, ptr %27, align 8, !tbaa !23
  %28 = getelementptr inbounds nuw i8, ptr %0, i64 1600
  store ptr @tikz_draw_methods, ptr %28, align 8, !tbaa !24
  %29 = getelementptr inbounds nuw i8, ptr %0, i64 1584
  store ptr %5, ptr %29, align 8, !tbaa !25
  %30 = getelementptr inbounds nuw i8, ptr %0, i64 1592
  %31 = load i64, ptr %30, align 8, !tbaa !26
  %32 = or i64 %31, 2
  store i64 %32, ptr %30, align 8, !tbaa !26
  %33 = getelementptr inbounds nuw i8, ptr %0, i64 1608
  store i32 0, ptr %33, align 8, !tbaa !27
  tail call void @output_draw(ptr noundef nonnull %0) #13
  store i32 1, ptr %33, align 8, !tbaa !27
  %34 = tail call i64 @fwrite(ptr nonnull @.str.3, i64 27, i64 1, ptr nonnull %5)
  %35 = tail call i32 (ptr, ptr, ...) @fprintf(ptr noundef nonnull %5, ptr noundef nonnull @.str.4) #13
  %36 = tail call i64 @fwrite(ptr nonnull @.str.5, i64 38, i64 1, ptr nonnull %5)
  tail call void @declare_colors(ptr noundef nonnull %0) #13
  tail call void @lstopo_prepare_custom_styles(ptr noundef nonnull %0) #13
  %37 = tail call i32 (ptr, ptr, ...) @fprintf(ptr noundef nonnull %5, ptr noundef nonnull @.str.6) #13
  %38 = tail call i64 @fwrite(ptr nonnull @.str.7, i64 17, i64 1, ptr nonnull %5)
  %39 = tail call i32 (ptr, ptr, ...) @fprintf(ptr noundef nonnull %5, ptr noundef nonnull @.str.8) #13
  %40 = getelementptr inbounds nuw i8, ptr %0, i64 936
  %41 = load i32, ptr %40, align 8, !tbaa !28
  %42 = getelementptr inbounds nuw i8, ptr %0, i64 940
  %43 = load i32, ptr %42, align 4, !tbaa !29
  %44 = add i32 %43, %41
  %45 = tail call i32 (ptr, ptr, ...) @fprintf(ptr noundef nonnull %5, ptr noundef nonnull @.str.9, i32 noundef %41, i32 noundef %44, ptr noundef nonnull %.0.i.ph, i32 noundef %41, i32 noundef %44, ptr noundef nonnull %.0.i.ph) #13
  %46 = getelementptr inbounds nuw i8, ptr %0, i64 1612
  %47 = load i32, ptr %46, align 4, !tbaa !30
  %48 = getelementptr inbounds nuw i8, ptr %0, i64 1616
  %49 = load i32, ptr %48, align 8, !tbaa !31
  %50 = tail call i32 (ptr, ptr, ...) @fprintf(ptr noundef nonnull %5, ptr noundef nonnull @.str.10, i32 noundef %47, i32 noundef %49) #13
  tail call void @output_draw(ptr noundef nonnull %0) #13
  %51 = tail call i64 @fwrite(ptr nonnull @.str.11, i64 18, i64 1, ptr nonnull %5)
  %52 = tail call i32 (ptr, ptr, ...) @fprintf(ptr noundef nonnull %5, ptr noundef nonnull @.str.12) #13
  %53 = tail call i64 @fwrite(ptr nonnull @.str.13, i64 15, i64 1, ptr nonnull %5)
  %54 = load ptr, ptr @stdout, align 8, !tbaa !20
  %.not47 = icmp eq ptr %5, %54
  br i1 %.not47, label %57, label %55

55:                                               ; preds = %select.unfold
  %56 = tail call i32 @fclose(ptr noundef nonnull %5)
  br label %57

57:                                               ; preds = %55, %select.unfold
  tail call void @destroy_colors(ptr noundef nonnull %0) #13
  br label %58

58:                                               ; preds = %tikz_get_font_family.exit, %25, %57, %6
  %.0 = phi i32 [ 0, %57 ], [ -1, %6 ], [ -1, %25 ], [ -1, %tikz_get_font_family.exit ]
  ret i32 %.0
}